(dp1
I0
(dp2
S'layers'
p3
(lp4
I50
aI50
asS'status'
p5
S'running'
p6
sS'optimizer'
p7
S'nadam'
p8
sS'activation'
p9
(lp10
S'relu'
p11
ag11
ag11
asS'meanerrors'
p12
S'tbd'
p13
sS'init'
p14
S'glorot_uniform'
p15
sS'dropout'
p16
F0.01
ssI1
(dp17
g3
(lp18
I100
aI100
aI100
asg5
S'finished'
p19
sg7
g8
sg9
g10
sg12
(dp20
S'70.0-95.0'
p21
(lp22
cnumpy.core.multiarray
scalar
p23
(cnumpy
dtype
p24
(S'f8'
I0
I1
tRp25
(I3
S'<'
NNNI-1
I-1
I0
tbS'\xdd\xf7\xadH\xb01$@'
tRp26
ag23
(g25
S'\xbb6R\x8ei\x98$@'
tRp27
asS'56.0-70.0'
p28
(lp29
g23
(g25
S'|\t./8\xf7#@'
tRp30
ag23
(g25
S'\xdb\xbc\xfe\x89\x8e\xda#@'
tRp31
asS'53.5-56.0'
p32
(lp33
g23
(g25
S'\x16\x9ax\x97\xcc.#@'
tRp34
ag23
(g25
S'\xdd\x19\xb3\x93\x90l#@'
tRp35
asS'0.0-100.0'
p36
(lp37
g23
(g25
S'\xf7\xbe\x18/\xb0\xb4\x1a@'
tRp38
ag23
(g25
S'\x1fs\xc8S\x98\xff\x1a@'
tRp39
asS'0.0-53.5'
p40
(lp41
g23
(g25
S"sv#\x0c5\x8c'@"
tRp42
ag23
(g25
S'\x1c\xe5\x1d\x92\n9&@'
tRp43
asS'95.0-100.0'
p44
(lp45
g23
(g25
S'!\xdd\xcfo\x8e\x9b\x0f@'
tRp46
ag23
(g25
S'q\xb0\xe9\xebp1\x10@'
tRp47
assg14
g15
sg16
F0.01
ssI2
(dp48
g3
(lp49
I300
aI300
aI300
asg5
S'running'
p50
sg7
g8
sg9
g10
sg12
g13
sg14
g15
sg16
F0.40000000000000002
ssI3
(dp51
g3
g49
sg5
S'waiting'
p52
sg7
g8
sg9
g10
sg12
g13
sg14
g15
sg16
F0.20000000000000001
ssI4
(dp53
g3
g49
sg5
g52
sg7
g8
sg9
g10
sg12
g13
sg14
g15
sg16
F0.10000000000000001
ssI5
(dp54
g3
g4
sg5
g52
sg7
g8
sg9
g10
sg12
g13
sg14
g15
sg16
F0.40000000000000002
ssI6
(dp55
g3
g4
sg5
g52
sg7
g8
sg9
g10
sg12
g13
sg14
g15
sg16
F0.20000000000000001
ssI7
(dp56
g3
g4
sg5
g52
sg7
g8
sg9
g10
sg12
g13
sg14
g15
sg16
F0.050000000000000003
ssI8
(dp57
g3
g18
sg5
g52
sg7
g8
sg9
g10
sg12
g13
sg14
g15
sg16
F0.050000000000000003
ssI9
(dp58
g3
g18
sg5
g52
sg7
g8
sg9
g10
sg12
g13
sg14
g15
sg16
F0.20000000000000001
ssI10
(dp59
g3
g18
sg5
g52
sg7
g8
sg9
g10
sg12
g13
sg14
g15
sg16
F0.10000000000000001
ssI11
(dp60
g3
g49
sg5
g52
sg7
g8
sg9
g10
sg12
g13
sg14
g15
sg16
F0.01
ssI12
(dp61
g3
g49
sg5
g52
sg7
g8
sg9
g10
sg12
g13
sg14
g15
sg16
F0.050000000000000003
ssI13
(dp62
g3
g18
sg5
g52
sg7
g8
sg9
g10
sg12
g13
sg14
g15
sg16
F0.40000000000000002
ssI14
(dp63
g3
g4
sg5
g52
sg7
g8
sg9
g10
sg12
g13
sg14
g15
sg16
F0.10000000000000001
ssS'best_global_mean_err'
p64
g37
s.