(dp1
I0
(dp2
S'layers'
p3
(lp4
I300
aI300
aI300
asS'status'
p5
S'waiting'
p6
sS'optimizer'
p7
S'nadam'
p8
sS'activation'
p9
(lp10
S'relu'
p11
ag11
ag11
asS'meanerrors'
p12
S'tbd'
p13
sS'init'
p14
S'glorot_uniform'
p15
sS'dropout'
p16
F0.40000000000000002
ssI1
(dp17
g3
(lp18
I50
aI50
asg5
g6
sg7
g8
sg9
g10
sg12
g13
sg14
g15
sg16
F0.10000000000000001
ssI2
(dp19
g3
g18
sg5
g6
sg7
g8
sg9
g10
sg12
g13
sg14
g15
sg16
F0.20000000000000001
ssI3
(dp20
g3
(lp21
I100
aI100
aI100
asg5
g6
sg7
g8
sg9
g10
sg12
g13
sg14
g15
sg16
F0.050000000000000003
ssI4
(dp22
g3
g4
sg5
g6
sg7
g8
sg9
g10
sg12
g13
sg14
g15
sg16
F0.050000000000000003
ssI5
(dp23
g3
g21
sg5
g6
sg7
g8
sg9
g10
sg12
g13
sg14
g15
sg16
F0.40000000000000002
ssI6
(dp24
g3
g18
sg5
g6
sg7
g8
sg9
g10
sg12
g13
sg14
g15
sg16
F0.40000000000000002
ssI7
(dp25
g3
g4
sg5
g6
sg7
g8
sg9
g10
sg12
g13
sg14
g15
sg16
F0.10000000000000001
ssI8
(dp26
g3
g4
sg5
g6
sg7
g8
sg9
g10
sg12
g13
sg14
g15
sg16
F0.01
ssI9
(dp27
g3
g18
sg5
g6
sg7
g8
sg9
g10
sg12
g13
sg14
g15
sg16
F0.050000000000000003
ssI10
(dp28
g3
g21
sg5
g6
sg7
g8
sg9
g10
sg12
g13
sg14
g15
sg16
F0.01
ssI11
(dp29
g3
g4
sg5
g6
sg7
g8
sg9
g10
sg12
g13
sg14
g15
sg16
F0.20000000000000001
ssI12
(dp30
g3
g21
sg5
g6
sg7
g8
sg9
g10
sg12
g13
sg14
g15
sg16
F0.20000000000000001
ssI13
(dp31
g3
g18
sg5
g6
sg7
g8
sg9
g10
sg12
g13
sg14
g15
sg16
F0.01
ssI14
(dp32
g3
g21
sg5
g6
sg7
g8
sg9
g10
sg12
g13
sg14
g15
sg16
F0.10000000000000001
ss.