(dp1
I0
(dp2
S'layers'
p3
(lp4
I100
aI100
aI100
asS'status'
p5
S'waiting'
p6
sS'optimizer'
p7
S'nadam'
p8
sS'activation'
p9
S'relu'
p10
sS'meanerrors'
p11
S'tbd'
p12
sS'dropout'
p13
F0.20000000000000001
ssI1
(dp14
g3
(lp15
I300
aI300
aI300
asg5
g6
sg7
g8
sg9
g10
sg11
g12
sg13
F0.01
ssI2
(dp16
g3
(lp17
I50
aI50
asg5
g6
sg7
g8
sg9
g10
sg11
g12
sg13
F0.20000000000000001
ssI3
(dp18
g3
g15
sg5
g6
sg7
g8
sg9
g10
sg11
g12
sg13
F0.050000000000000003
ssI4
(dp19
g3
g4
sg5
g6
sg7
g8
sg9
g10
sg11
g12
sg13
F0.050000000000000003
ssI5
(dp20
g3
g17
sg5
g6
sg7
g8
sg9
g10
sg11
g12
sg13
F0.40000000000000002
ssI6
(dp21
g3
(lp22
I500
aI500
aI500
asg5
g6
sg7
g8
sg9
g10
sg11
g12
sg13
F0.40000000000000002
ssI7
(dp23
g3
g15
sg5
g6
sg7
g8
sg9
g10
sg11
g12
sg13
F0.40000000000000002
ssI8
(dp24
g3
g22
sg5
g6
sg7
g8
sg9
g10
sg11
g12
sg13
F0.01
ssI9
(dp25
g3
g4
sg5
g6
sg7
g8
sg9
g10
sg11
g12
sg13
F0.10000000000000001
ssI10
(dp26
g3
g17
sg5
g6
sg7
g8
sg9
g10
sg11
g12
sg13
F0.050000000000000003
ssI11
(dp27
g3
g22
sg5
g6
sg7
g8
sg9
g10
sg11
g12
sg13
F0.20000000000000001
ssI12
(dp28
g3
g4
sg5
g6
sg7
g8
sg9
g10
sg11
g12
sg13
F0.40000000000000002
ssI13
(dp29
g3
g17
sg5
g6
sg7
g8
sg9
g10
sg11
g12
sg13
F0.10000000000000001
ssI14
(dp30
g3
g15
sg5
g6
sg7
g8
sg9
g10
sg11
g12
sg13
F0.10000000000000001
ssI15
(dp31
g3
g22
sg5
g6
sg7
g8
sg9
g10
sg11
g12
sg13
F0.10000000000000001
ssI16
(dp32
g3
g22
sg5
g6
sg7
g8
sg9
g10
sg11
g12
sg13
F0.050000000000000003
ssI17
(dp33
g3
g4
sg5
g6
sg7
g8
sg9
g10
sg11
g12
sg13
F0.01
ssI18
(dp34
g3
g15
sg5
g6
sg7
g8
sg9
g10
sg11
g12
sg13
F0.20000000000000001
ssI19
(dp35
g3
g17
sg5
g6
sg7
g8
sg9
g10
sg11
g12
sg13
F0.01
ss.